target datalayout = "e-m:e-p270:32:32-p271:32:32-p272:64:64-i64:64-i128:128-f80:128-n8:16:32:64-S128"
target triple = "x86_64-pc-linux-gnu"

%"class.Eigen::PlainObjectBase.4" = type { %"class.Eigen::DenseStorage.11" }
%"class.Eigen::DenseStorage.11" = type { ptr, i64, i64 }
%"class.Eigen::PlainObjectBase" = type { %"class.Eigen::DenseStorage" }
%"class.Eigen::DenseStorage" = type { ptr, i64, i64 }

; Function Attrs: mustprogress nounwind uwtable
define linkonce_odr dso_local noundef i64 @_ZNK5Eigen12DenseStorageIiLin1ELin1ELin1ELi0EE4rowsEv(ptr noundef nonnull align 8 dereferenceable(24) %0) #1 comdat align 2 {
  %2 = alloca ptr, align 8
  store ptr %0, ptr %2, align 8, !tbaa !64
  %3 = load ptr, ptr %2, align 8
  %4 = getelementptr inbounds nuw %"class.Eigen::DenseStorage", ptr %3, i32 0, i32 1
  %5 = load i64, ptr %4, align 8, !tbaa !66
  ret i64 %5
}

; Function Attrs: mustprogress nounwind uwtable
define linkonce_odr dso_local noundef i64 @_ZNK5Eigen12DenseStorageIdLin1ELin1ELin1ELi0EE4colsEv(ptr noundef nonnull align 8 dereferenceable(24) %0) #1 comdat align 2 {
  %2 = alloca ptr, align 8
  store ptr %0, ptr %2, align 8, !tbaa !60
  %3 = load ptr, ptr %2, align 8
  %4 = getelementptr inbounds nuw %"class.Eigen::DenseStorage.11", ptr %3, i32 0, i32 2
  %5 = load i64, ptr %4, align 8, !tbaa !62
  ret i64 %5
}

; Function Attrs: inlinehint mustprogress nounwind uwtable
define linkonce_odr dso_local noundef nonnull align 8 dereferenceable(8) ptr @_ZSt3minIdERKT_S2_S2_(ptr noundef nonnull align 8 dereferenceable(8) %0, ptr noundef nonnull align 8 dereferenceable(8) %1) #6 comdat {
  %3 = alloca ptr, align 8
  %4 = alloca ptr, align 8
  %5 = alloca ptr, align 8
  store ptr %0, ptr %4, align 8, !tbaa !26
  store ptr %1, ptr %5, align 8, !tbaa !26
  %6 = load ptr, ptr %5, align 8, !tbaa !26
  %7 = load double, ptr %6, align 8, !tbaa !17
  %8 = load ptr, ptr %4, align 8, !tbaa !26
  %9 = load double, ptr %8, align 8, !tbaa !17
  %10 = fcmp olt double %7, %9
  br i1 %10, label %11, label %13

11:                                               ; preds = %2
  %12 = load ptr, ptr %5, align 8, !tbaa !26
  store ptr %12, ptr %3, align 8
  br label %15

13:                                               ; preds = %2
  %14 = load ptr, ptr %4, align 8, !tbaa !26
  store ptr %14, ptr %3, align 8
  br label %15

15:                                               ; preds = %13, %11
  %16 = load ptr, ptr %3, align 8
  ret ptr %16
}

; Function Attrs: inlinehint mustprogress nounwind uwtable
define linkonce_odr dso_local noundef i64 @_ZNK5Eigen15PlainObjectBaseINS_6MatrixIiLin1ELin1ELi0ELin1ELin1EEEE4rowsEv(ptr noundef nonnull align 8 dereferenceable(24) %0) #6 comdat align 2 {
  %2 = alloca ptr, align 8
  store ptr %0, ptr %2, align 8, !tbaa !46
  %3 = load ptr, ptr %2, align 8
  %4 = getelementptr inbounds nuw %"class.Eigen::PlainObjectBase", ptr %3, i32 0, i32 0
  %5 = call noundef i64 @_ZNK5Eigen12DenseStorageIiLin1ELin1ELin1ELi0EE4rowsEv(ptr noundef nonnull align 8 dereferenceable(24) %4) #22
  ret i64 %5
}

; Function Attrs: inlinehint mustprogress nounwind uwtable
define linkonce_odr dso_local noundef i64 @_ZNK5Eigen15PlainObjectBaseINS_6MatrixIdLin1ELin1ELi0ELin1ELin1EEEE4colsEv(ptr noundef nonnull align 8 dereferenceable(24) %0) #6 comdat align 2 {
  %2 = alloca ptr, align 8
  store ptr %0, ptr %2, align 8, !tbaa !44
  %3 = load ptr, ptr %2, align 8
  %4 = getelementptr inbounds nuw %"class.Eigen::PlainObjectBase.4", ptr %3, i32 0, i32 0
  %5 = call noundef i64 @_ZNK5Eigen12DenseStorageIdLin1ELin1ELin1ELi0EE4colsEv(ptr noundef nonnull align 8 dereferenceable(24) %4) #22
  ret i64 %5
}

; Function Attrs: mustprogress uwtable
define dso_local noundef double @_ZN3igl13flip_avoiding35compute_max_step_from_singularitiesERKN5Eigen6MatrixIdLin1ELin1ELi0ELin1ELin1EEERKNS2_IiLin1ELin1ELi0ELin1ELin1EEERS3_(ptr noundef nonnull align 8 dereferenceable(24) %0, ptr noundef nonnull align 8 dereferenceable(24) %1, ptr noundef nonnull align 8 dereferenceable(24) %2) #3 {
  %4 = alloca ptr, align 8
  %5 = alloca ptr, align 8
  %6 = alloca ptr, align 8
  %7 = alloca double, align 8
  %8 = alloca i32, align 4
  %9 = alloca double, align 8
  %10 = alloca i32, align 4
  %11 = alloca double, align 8
  store ptr %0, ptr %4, align 8, !tbaa !27
  store ptr %1, ptr %5, align 8, !tbaa !29
  store ptr %2, ptr %6, align 8, !tbaa !27
  call void @llvm.lifetime.start.p0(i64 8, ptr %7) #22
  store double 0x7FF0000000000000, ptr %7, align 8, !tbaa !17
  %12 = load ptr, ptr %4, align 8, !tbaa !27
  %13 = call noundef i64 @_ZNK5Eigen15PlainObjectBaseINS_6MatrixIdLin1ELin1ELi0ELin1ELin1EEEE4colsEv(ptr noundef nonnull align 8 dereferenceable(24) %12) #22
  %14 = icmp eq i64 %13, 2
  br i1 %14, label %15, label %35

15:                                               ; preds = %3
  call void @llvm.lifetime.start.p0(i64 4, ptr %8) #22
  store i32 0, ptr %8, align 4, !tbaa !19
  br label %16

16:                                               ; preds = %31, %15
  %17 = load i32, ptr %8, align 4, !tbaa !19
  %18 = sext i32 %17 to i64
  %19 = load ptr, ptr %5, align 8, !tbaa !29
  %20 = call noundef i64 @_ZNK5Eigen15PlainObjectBaseINS_6MatrixIiLin1ELin1ELi0ELin1ELin1EEEE4rowsEv(ptr noundef nonnull align 8 dereferenceable(24) %19) #22
  %21 = icmp slt i64 %18, %20
  br i1 %21, label %23, label %22

22:                                               ; preds = %16
  call void @llvm.lifetime.end.p0(i64 4, ptr %8) #22
  br label %34

23:                                               ; preds = %16
  call void @llvm.lifetime.start.p0(i64 8, ptr %9) #22
  %24 = load ptr, ptr %4, align 8, !tbaa !27
  %25 = load ptr, ptr %5, align 8, !tbaa !29
  %26 = load ptr, ptr %6, align 8, !tbaa !27
  %27 = load i32, ptr %8, align 4, !tbaa !19
  %28 = call noundef double @_ZN3igl13flip_avoiding19get_min_pos_root_2DERKN5Eigen6MatrixIdLin1ELin1ELi0ELin1ELin1EEERKNS2_IiLin1ELin1ELi0ELin1ELin1EEERS3_i(ptr noundef nonnull align 8 dereferenceable(24) %24, ptr noundef nonnull align 8 dereferenceable(24) %25, ptr noundef nonnull align 8 dereferenceable(24) %26, i32 noundef %27)
  store double %28, ptr %9, align 8, !tbaa !17
  %29 = call noundef nonnull align 8 dereferenceable(8) ptr @_ZSt3minIdERKT_S2_S2_(ptr noundef nonnull align 8 dereferenceable(8) %7, ptr noundef nonnull align 8 dereferenceable(8) %9)
  %30 = load double, ptr %29, align 8, !tbaa !17
  store double %30, ptr %7, align 8, !tbaa !17
  call void @llvm.lifetime.end.p0(i64 8, ptr %9) #22
  br label %31

31:                                               ; preds = %23
  %32 = load i32, ptr %8, align 4, !tbaa !19
  %33 = add nsw i32 %32, 1
  store i32 %33, ptr %8, align 4, !tbaa !19
  br label %16, !llvm.loop !41

34:                                               ; preds = %22
  br label %55

35:                                               ; preds = %3
  call void @llvm.lifetime.start.p0(i64 4, ptr %10) #22
  store i32 0, ptr %10, align 4, !tbaa !19
  br label %36

36:                                               ; preds = %51, %35
  %37 = load i32, ptr %10, align 4, !tbaa !19
  %38 = sext i32 %37 to i64
  %39 = load ptr, ptr %5, align 8, !tbaa !29
  %40 = call noundef i64 @_ZNK5Eigen15PlainObjectBaseINS_6MatrixIiLin1ELin1ELi0ELin1ELin1EEEE4rowsEv(ptr noundef nonnull align 8 dereferenceable(24) %39) #22
  %41 = icmp slt i64 %38, %40
  br i1 %41, label %43, label %42

42:                                               ; preds = %36
  call void @llvm.lifetime.end.p0(i64 4, ptr %10) #22
  br label %54

43:                                               ; preds = %36
  call void @llvm.lifetime.start.p0(i64 8, ptr %11) #22
  %44 = load ptr, ptr %4, align 8, !tbaa !27
  %45 = load ptr, ptr %5, align 8, !tbaa !29
  %46 = load ptr, ptr %6, align 8, !tbaa !27
  %47 = load i32, ptr %10, align 4, !tbaa !19
  %48 = call noundef double @_ZN3igl13flip_avoiding19get_min_pos_root_3DERKN5Eigen6MatrixIdLin1ELin1ELi0ELin1ELin1EEERKNS2_IiLin1ELin1ELi0ELin1ELin1EEERS3_i(ptr noundef nonnull align 8 dereferenceable(24) %44, ptr noundef nonnull align 8 dereferenceable(24) %45, ptr noundef nonnull align 8 dereferenceable(24) %46, i32 noundef %47)
  store double %48, ptr %11, align 8, !tbaa !17
  %49 = call noundef nonnull align 8 dereferenceable(8) ptr @_ZSt3minIdERKT_S2_S2_(ptr noundef nonnull align 8 dereferenceable(8) %7, ptr noundef nonnull align 8 dereferenceable(8) %11)
  %50 = load double, ptr %49, align 8, !tbaa !17
  store double %50, ptr %7, align 8, !tbaa !17
  call void @llvm.lifetime.end.p0(i64 8, ptr %11) #22
  br label %51

51:                                               ; preds = %43
  %52 = load i32, ptr %10, align 4, !tbaa !19
  %53 = add nsw i32 %52, 1
  store i32 %53, ptr %10, align 4, !tbaa !19
  br label %36, !llvm.loop !43

54:                                               ; preds = %42
  br label %55

55:                                               ; preds = %54, %34
  %56 = load double, ptr %7, align 8, !tbaa !17
  call void @llvm.lifetime.end.p0(i64 8, ptr %7) #22
  ret double %56
}