; Function Attrs: mustprogress uwtable
define dso_local noundef double @_ZN3igl13flip_avoiding35compute_max_step_from_singularitiesERKN5Eigen6MatrixIdLin1ELin1ELi0ELin1ELin1EEERKNS2_IiLin1ELin1ELi0ELin1ELin1EEERS3_(ptr noundef nonnull readonly align 8 captures(none) dereferenceable(24) %0, ptr noundef nonnull readonly align 8 captures(none) dereferenceable(24) %1, ptr noundef nonnull readonly align 8 captures(none) dereferenceable(24) %2) local_unnamed_addr #6 {
  %4 = getelementptr inbounds nuw i8, ptr %0, i64 16
  %5 = load i64, ptr %4, align 8, !tbaa !24
  %6 = icmp eq i64 %5, 2
  %7 = getelementptr inbounds nuw i8, ptr %1, i64 8
  %8 = load i64, ptr %7, align 8, !tbaa !18
  %9 = icmp sgt i64 %8, 0
  br i1 %6, label %.preheader, label %.preheader23

.preheader23:                                     ; preds = %3
  br i1 %9, label %.lr.ph, label %.loopexit

.preheader:                                       ; preds = %3
  br i1 %9, label %.lr.ph29, label %.loopexit

.lr.ph29:                                         ; preds = %.preheader, %.lr.ph29
  %indvars.iv33 = phi i64 [ %indvars.iv.next34, %.lr.ph29 ], [ 0, %.preheader ]
  %.02227 = phi double [ %.sroa.speculated17, %.lr.ph29 ], [ 0x7FF0000000000000, %.preheader ]
  %10 = trunc nuw nsw i64 %indvars.iv33 to i32
  %11 = tail call noundef double @_ZN3igl13flip_avoiding19get_min_pos_root_2DERKN5Eigen6MatrixIdLin1ELin1ELi0ELin1ELin1EEERKNS2_IiLin1ELin1ELi0ELin1ELin1EEERS3_i(ptr noundef nonnull align 8 dereferenceable(24) %0, ptr noundef nonnull align 8 dereferenceable(24) %1, ptr noundef nonnull align 8 dereferenceable(24) %2, i32 noundef %10)
  %12 = fcmp olt double %11, %.02227
  %.sroa.speculated17 = select i1 %12, double %11, double %.02227
  %indvars.iv.next34 = add nuw nsw i64 %indvars.iv33, 1
  %13 = load i64, ptr %7, align 8, !tbaa !18
  %14 = icmp sgt i64 %13, %indvars.iv.next34
  br i1 %14, label %.lr.ph29, label %.loopexit, !llvm.loop !25

.lr.ph:                                           ; preds = %.preheader23, %.lr.ph
  %indvars.iv = phi i64 [ %indvars.iv.next, %.lr.ph ], [ 0, %.preheader23 ]
  %.225 = phi double [ %.sroa.speculated, %.lr.ph ], [ 0x7FF0000000000000, %.preheader23 ]
  %15 = trunc nuw nsw i64 %indvars.iv to i32
  %16 = tail call noundef double @_ZN3igl13flip_avoiding19get_min_pos_root_3DERKN5Eigen6MatrixIdLin1ELin1ELi0ELin1ELin1EEERKNS2_IiLin1ELin1ELi0ELin1ELin1EEERS3_i(ptr noundef nonnull align 8 dereferenceable(24) %0, ptr noundef nonnull align 8 dereferenceable(24) %1, ptr noundef nonnull align 8 dereferenceable(24) %2, i32 noundef %15)
  %17 = fcmp olt double %16, %.225
  %.sroa.speculated = select i1 %17, double %16, double %.225
  %indvars.iv.next = add nuw nsw i64 %indvars.iv, 1
  %18 = load i64, ptr %7, align 8, !tbaa !18
  %19 = icmp sgt i64 %18, %indvars.iv.next
  br i1 %19, label %.lr.ph, label %.loopexit, !llvm.loop !27

.loopexit:                                        ; preds = %.lr.ph, %.lr.ph29, %.preheader23, %.preheader
  %.1 = phi double [ 0x7FF0000000000000, %.preheader ], [ 0x7FF0000000000000, %.preheader23 ], [ %.sroa.speculated17, %.lr.ph29 ], [ %.sroa.speculated, %.lr.ph ]
  ret double %.1
}